target datalayout = "e-m:e-p270:32:32-p271:32:32-p272:64:64-i64:64-i128:128-f80:128-n8:16:32:64-S128"
target triple = "x86_64-pc-linux-gnu"

%struct._value_string_ext = type { ptr, i32, i32, ptr, ptr }
%struct.expert_field = type { i32, i32 }

@hf_hdr_name_value = internal global i32 0, align 4
@ei_wsp_oversized_uintvar = internal global %struct.expert_field zeroinitializer, align 4
@ei_wsp_header_invalid_value = internal global %struct.expert_field zeroinitializer, align 4
@vals_bearer_types_ext = internal global %struct._value_string_ext { ptr @_try_val_to_str_ext_init, i32 0, i32 30, ptr @vals_bearer_types, ptr @.str.1217 }, align 8
@hf_hdr_bearer_indication = internal global i32 0, align 4
@.str.380 = private unnamed_addr constant [18 x i8] c"Bearer-Indication\00", align 1
@ett_integer_lookup_value = internal global i32 0, align 4
@.str.1075 = private unnamed_addr constant [19 x i8] c"Integer lookup: %s\00", align 1
@.str.1143 = private unnamed_addr constant [12 x i8] c"bearer type\00", align 1
@.str.1144 = private unnamed_addr constant [13 x i8] c"<Unknown %s>\00", align 1

; Function Attrs: null_pointer_is_valid sspstrong uwtable
define internal i32 @wkh_integer_lookup_value_header_func(ptr noundef %0, ptr noundef %1, i32 noundef %2, ptr noundef %3, i32 noundef %4, ptr noundef %5, ptr noundef %6, ptr noundef %7) #1 {
  %9 = alloca ptr, align 8
  %10 = alloca ptr, align 8
  %11 = alloca i32, align 4
  %12 = alloca ptr, align 8
  %13 = alloca i32, align 4
  %14 = alloca ptr, align 8
  %15 = alloca ptr, align 8
  %16 = alloca ptr, align 8
  %17 = alloca i8, align 1
  %18 = alloca ptr, align 8
  %19 = alloca ptr, align 8
  %20 = alloca i32, align 4
  %21 = alloca i8, align 1
  %22 = alloca i32, align 4
  %23 = alloca i32, align 4
  %24 = alloca i32, align 4
  %25 = alloca ptr, align 8
  %26 = alloca i32, align 4
  %27 = alloca i32, align 4
  %28 = alloca ptr, align 8
  %29 = alloca ptr, align 8
  store ptr %0, ptr %9, align 8
  store ptr %1, ptr %10, align 8
  store i32 %2, ptr %11, align 4
  store ptr %3, ptr %12, align 8
  store i32 %4, ptr %13, align 4
  store ptr %5, ptr %14, align 8
  store ptr %6, ptr %15, align 8
  store ptr %7, ptr %16, align 8
  call void @llvm.lifetime.start.p0(i64 1, ptr %17) #8
  store i8 0, ptr %17, align 1
  call void @llvm.lifetime.start.p0(i64 8, ptr %18) #8
  call void @llvm.lifetime.start.p0(i64 8, ptr %19) #8
  call void @llvm.lifetime.start.p0(i64 4, ptr %20) #8
  %30 = load i32, ptr %11, align 4
  %31 = add i32 %30, 1
  store i32 %31, ptr %20, align 4
  call void @llvm.lifetime.start.p0(i64 1, ptr %21) #8
  %32 = load ptr, ptr %10, align 8
  %33 = load i32, ptr %20, align 4
  %34 = call zeroext i8 @tvb_get_uint8(ptr noundef %32, i32 noundef %33)
  store i8 %34, ptr %21, align 1
  call void @llvm.lifetime.start.p0(i64 4, ptr %22) #8
  %35 = load i32, ptr %20, align 4
  store i32 %35, ptr %22, align 4
  call void @llvm.lifetime.start.p0(i64 4, ptr %23) #8
  call void @llvm.lifetime.start.p0(i64 4, ptr %24) #8
  call void @llvm.lifetime.start.p0(i64 8, ptr %25) #8
  store ptr null, ptr %25, align 8
  call void @llvm.lifetime.start.p0(i64 4, ptr %26) #8
  %36 = load i32, ptr %20, align 4
  store i32 %36, ptr %26, align 4
  call void @llvm.lifetime.start.p0(i64 4, ptr %27) #8
  call void @llvm.lifetime.start.p0(i64 8, ptr %28) #8
  %37 = call ptr @wmem_packet_scope()
  %38 = load ptr, ptr %14, align 8
  %39 = call noalias ptr (ptr, ptr, ...) @wmem_strdup_printf(ptr noundef %37, ptr noundef @.str.1075, ptr noundef %38)
  store ptr %39, ptr %28, align 8
  call void @llvm.lifetime.start.p0(i64 8, ptr %29) #8
  %40 = call ptr @wmem_packet_scope()
  %41 = load ptr, ptr %16, align 8
  %42 = call noalias ptr (ptr, ptr, ...) @wmem_strdup_printf(ptr noundef %40, ptr noundef @.str.1144, ptr noundef %41)
  store ptr %42, ptr %29, align 8
  %43 = load ptr, ptr %9, align 8
  %44 = load ptr, ptr %10, align 8
  %45 = load i32, ptr %11, align 4
  %46 = load i32, ptr %22, align 4
  %47 = load i32, ptr %11, align 4
  %48 = sub i32 %46, %47
  %49 = load i32, ptr @ett_integer_lookup_value, align 4
  %50 = load ptr, ptr %28, align 8
  %51 = call ptr @proto_tree_add_subtree(ptr noundef %43, ptr noundef %44, i32 noundef %45, i32 noundef %48, i32 noundef %49, ptr noundef %19, ptr noundef %50)
  store ptr %51, ptr %18, align 8
  %52 = load ptr, ptr %18, align 8
  %53 = load i32, ptr @hf_hdr_name_value, align 4
  %54 = load ptr, ptr %10, align 8
  %55 = load i32, ptr %11, align 4
  %56 = call ptr @proto_tree_add_item(ptr noundef %52, i32 noundef %53, ptr noundef %54, i32 noundef %55, i32 noundef 1, i32 noundef 0)
  %57 = load i8, ptr %21, align 1
  %58 = zext i8 %57 to i32
  %59 = and i32 %58, 128
  %60 = icmp ne i32 %59, 0
  br i1 %60, label %61, label %92

61:                                               ; preds = %8
  %62 = load i32, ptr %22, align 4
  %63 = add i32 %62, 1
  store i32 %63, ptr %22, align 4
  %64 = load i8, ptr %21, align 1
  %65 = zext i8 %64 to i32
  %66 = and i32 %65, 127
  %67 = load ptr, ptr %15, align 8
  %68 = call ptr @try_val_to_str_ext(i32 noundef %66, ptr noundef %67)
  store ptr %68, ptr %25, align 8
  %69 = load ptr, ptr %25, align 8
  %70 = icmp ne ptr %69, null
  br i1 %70, label %71, label %81

71:                                               ; preds = %61
  %72 = load ptr, ptr %9, align 8
  %73 = load i32, ptr %13, align 4
  %74 = load ptr, ptr %10, align 8
  %75 = load i32, ptr %11, align 4
  %76 = load i32, ptr %22, align 4
  %77 = load i32, ptr %11, align 4
  %78 = sub i32 %76, %77
  %79 = load ptr, ptr %25, align 8
  %80 = call ptr @proto_tree_add_string(ptr noundef %72, i32 noundef %73, ptr noundef %74, i32 noundef %75, i32 noundef %78, ptr noundef %79)
  store i8 1, ptr %17, align 1
  br label %91

81:                                               ; preds = %61
  %82 = load ptr, ptr %9, align 8
  %83 = load i32, ptr %13, align 4
  %84 = load ptr, ptr %10, align 8
  %85 = load i32, ptr %11, align 4
  %86 = load i32, ptr %22, align 4
  %87 = load i32, ptr %11, align 4
  %88 = sub i32 %86, %87
  %89 = load ptr, ptr %29, align 8
  %90 = call ptr @proto_tree_add_string(ptr noundef %82, i32 noundef %83, ptr noundef %84, i32 noundef %85, i32 noundef %88, ptr noundef %89)
  br label %91

91:                                               ; preds = %81, %71
  br label %181

92:                                               ; preds = %8
  %93 = load i8, ptr %21, align 1
  %94 = zext i8 %93 to i32
  %95 = icmp eq i32 %94, 0
  br i1 %95, label %100, label %96

96:                                               ; preds = %92
  %97 = load i8, ptr %21, align 1
  %98 = zext i8 %97 to i32
  %99 = icmp sge i32 %98, 32
  br i1 %99, label %100, label %108

100:                                              ; preds = %96, %92
  %101 = call ptr @wmem_packet_scope()
  %102 = load ptr, ptr %10, align 8
  %103 = load i32, ptr %20, align 4
  %104 = call ptr @tvb_get_stringz_enc(ptr noundef %101, ptr noundef %102, i32 noundef %103, ptr noundef %23, i32 noundef 0)
  %105 = load i32, ptr %20, align 4
  %106 = load i32, ptr %23, align 4
  %107 = add i32 %105, %106
  store i32 %107, ptr %22, align 4
  br label %180

108:                                              ; preds = %96
  %109 = load i8, ptr %21, align 1
  %110 = zext i8 %109 to i32
  %111 = icmp eq i32 %110, 31
  br i1 %111, label %112, label %120

112:                                              ; preds = %108
  %113 = load ptr, ptr %10, align 8
  %114 = load i32, ptr %20, align 4
  %115 = add i32 %114, 1
  %116 = load ptr, ptr %12, align 8
  %117 = call i32 @tvb_get_uintvar(ptr noundef %113, i32 noundef %115, ptr noundef %24, ptr noundef %116, ptr noundef @ei_wsp_oversized_uintvar)
  store i32 %117, ptr %23, align 4
  %118 = load i32, ptr %24, align 4
  %119 = add i32 %118, 1
  store i32 %119, ptr %24, align 4
  br label %125

120:                                              ; preds = %108
  %121 = load ptr, ptr %10, align 8
  %122 = load i32, ptr %22, align 4
  %123 = call zeroext i8 @tvb_get_uint8(ptr noundef %121, i32 noundef %122)
  %124 = zext i8 %123 to i32
  store i32 %124, ptr %23, align 4
  store i32 1, ptr %24, align 4
  br label %125

125:                                              ; preds = %120, %112
  %126 = load i32, ptr %24, align 4
  %127 = load i32, ptr %23, align 4
  %128 = add i32 %126, %127
  %129 = load i32, ptr %22, align 4
  %130 = add i32 %129, %128
  store i32 %130, ptr %22, align 4
  %131 = load i8, ptr %21, align 1
  %132 = zext i8 %131 to i32
  %133 = icmp sle i32 %132, 4
  br i1 %133, label %134, label %179

134:                                              ; preds = %125
  %135 = load ptr, ptr %10, align 8
  %136 = load i32, ptr %26, align 4
  %137 = call zeroext i8 @tvb_get_uint8(ptr noundef %135, i32 noundef %136)
  %138 = zext i8 %137 to i32
  store i32 %138, ptr %27, align 4
  %139 = load i32, ptr %27, align 4
  %140 = icmp uge i32 %139, 1
  br i1 %140, label %141, label %144

141:                                              ; preds = %134
  %142 = load i32, ptr %27, align 4
  %143 = icmp ule i32 %142, 4
  br label %144

144:                                              ; preds = %141, %134
  %145 = phi i1 [ false, %134 ], [ %143, %141 ]
  %146 = zext i1 %145 to i8
  store i8 %146, ptr %17, align 1
  %147 = load i8, ptr %17, align 1, !range !6, !noundef !7
  %148 = trunc i8 %147 to i1
  br i1 %148, label %149, label %178

149:                                              ; preds = %144
  %150 = load i8, ptr %21, align 1
  %151 = zext i8 %150 to i32
  %152 = and i32 %151, 127
  %153 = load ptr, ptr %15, align 8
  %154 = call ptr @try_val_to_str_ext(i32 noundef %152, ptr noundef %153)
  store ptr %154, ptr %25, align 8
  %155 = load ptr, ptr %25, align 8
  %156 = icmp ne ptr %155, null
  br i1 %156, label %157, label %167

157:                                              ; preds = %149
  %158 = load ptr, ptr %9, align 8
  %159 = load i32, ptr %13, align 4
  %160 = load ptr, ptr %10, align 8
  %161 = load i32, ptr %11, align 4
  %162 = load i32, ptr %22, align 4
  %163 = load i32, ptr %11, align 4
  %164 = sub i32 %162, %163
  %165 = load ptr, ptr %25, align 8
  %166 = call ptr @proto_tree_add_string(ptr noundef %158, i32 noundef %159, ptr noundef %160, i32 noundef %161, i32 noundef %164, ptr noundef %165)
  store i8 1, ptr %17, align 1
  br label %177

167:                                              ; preds = %149
  %168 = load ptr, ptr %9, align 8
  %169 = load i32, ptr %13, align 4
  %170 = load ptr, ptr %10, align 8
  %171 = load i32, ptr %11, align 4
  %172 = load i32, ptr %22, align 4
  %173 = load i32, ptr %11, align 4
  %174 = sub i32 %172, %173
  %175 = load ptr, ptr %29, align 8
  %176 = call ptr @proto_tree_add_string(ptr noundef %168, i32 noundef %169, ptr noundef %170, i32 noundef %171, i32 noundef %174, ptr noundef %175)
  br label %177

177:                                              ; preds = %167, %157
  br label %178

178:                                              ; preds = %177, %144
  br label %179

179:                                              ; preds = %178, %125
  br label %180

180:                                              ; preds = %179, %100
  br label %181

181:                                              ; preds = %180, %91
  %182 = load i8, ptr %17, align 1, !range !6, !noundef !7
  %183 = trunc i8 %182 to i1
  br i1 %183, label %188, label %184

184:                                              ; preds = %181
  %185 = load ptr, ptr %12, align 8
  %186 = load ptr, ptr %19, align 8
  %187 = call ptr @expert_add_info(ptr noundef %185, ptr noundef %186, ptr noundef @ei_wsp_header_invalid_value)
  br label %188

188:                                              ; preds = %184, %181
  %189 = load i32, ptr %22, align 4
  call void @llvm.lifetime.end.p0(i64 8, ptr %29) #8
  call void @llvm.lifetime.end.p0(i64 8, ptr %28) #8
  call void @llvm.lifetime.end.p0(i64 4, ptr %27) #8
  call void @llvm.lifetime.end.p0(i64 4, ptr %26) #8
  call void @llvm.lifetime.end.p0(i64 8, ptr %25) #8
  call void @llvm.lifetime.end.p0(i64 4, ptr %24) #8
  call void @llvm.lifetime.end.p0(i64 4, ptr %23) #8
  call void @llvm.lifetime.end.p0(i64 4, ptr %22) #8
  call void @llvm.lifetime.end.p0(i64 1, ptr %21) #8
  call void @llvm.lifetime.end.p0(i64 4, ptr %20) #8
  call void @llvm.lifetime.end.p0(i64 8, ptr %19) #8
  call void @llvm.lifetime.end.p0(i64 8, ptr %18) #8
  call void @llvm.lifetime.end.p0(i64 1, ptr %17) #8
  ret i32 %189
}

; Function Attrs: null_pointer_is_valid sspstrong uwtable
define internal i32 @wkh_bearer_indication(ptr noundef %0, ptr noundef %1, i32 noundef %2, ptr noundef %3) #1 {
  %5 = alloca ptr, align 8
  %6 = alloca ptr, align 8
  %7 = alloca i32, align 4
  %8 = alloca ptr, align 8
  store ptr %0, ptr %5, align 8
  store ptr %1, ptr %6, align 8
  store i32 %2, ptr %7, align 4
  store ptr %3, ptr %8, align 8
  %9 = load ptr, ptr %5, align 8
  %10 = load ptr, ptr %6, align 8
  %11 = load i32, ptr %7, align 4
  %12 = load ptr, ptr %8, align 8
  %13 = load i32, ptr @hf_hdr_bearer_indication, align 4
  %14 = call i32 @wkh_integer_lookup_value_header_func(ptr noundef %9, ptr noundef %10, i32 noundef %11, ptr noundef %12, i32 noundef %13, ptr noundef @.str.380, ptr noundef @vals_bearer_types_ext, ptr noundef @.str.1143)
  ret i32 %14
}