; Function Attrs: null_pointer_is_valid sspstrong uwtable
define internal i32 @wkh_bearer_indication(ptr noundef %0, ptr noundef %1, i32 noundef %2, ptr noundef %3) #1 {
  %5 = alloca ptr, align 8
  %6 = alloca i32, align 4
  %7 = alloca i32, align 4
  %8 = load i32, ptr @hf_hdr_bearer_indication, align 4
  call void @llvm.lifetime.start.p0(i64 8, ptr nonnull %5) #5
  %9 = add i32 %2, 1
  %10 = tail call zeroext i8 @tvb_get_uint8(ptr noundef %1, i32 noundef %9)
  call void @llvm.lifetime.start.p0(i64 4, ptr nonnull %6) #5
  call void @llvm.lifetime.start.p0(i64 4, ptr nonnull %7) #5
  %11 = tail call ptr @wmem_packet_scope()
  %12 = tail call noalias ptr (ptr, ptr, ...) @wmem_strdup_printf(ptr noundef %11, ptr noundef nonnull @.str.1075, ptr noundef nonnull @.str.380)
  %13 = tail call ptr @wmem_packet_scope()
  %14 = tail call noalias ptr (ptr, ptr, ...) @wmem_strdup_printf(ptr noundef %13, ptr noundef nonnull @.str.1144, ptr noundef nonnull @.str.1143)
  %15 = load i32, ptr @ett_integer_lookup_value, align 4
  %16 = call ptr @proto_tree_add_subtree(ptr noundef %0, ptr noundef %1, i32 noundef %2, i32 noundef 1, i32 noundef %15, ptr noundef nonnull %5, ptr noundef %12)
  %17 = load i32, ptr @hf_hdr_name_value, align 4
  %18 = call ptr @proto_tree_add_item(ptr noundef %16, i32 noundef %17, ptr noundef %1, i32 noundef %2, i32 noundef 1, i32 noundef 0)
  %19 = zext i8 %10 to i32
  %.not.i = icmp sgt i8 %10, -1
  br i1 %.not.i, label %28, label %20

20:                                               ; preds = %4
  %21 = add i32 %2, 2
  %22 = and i32 %19, 127
  %23 = call ptr @try_val_to_str_ext(i32 noundef %22, ptr noundef nonnull @vals_bearer_types_ext)
  %.not79.i = icmp eq ptr %23, null
  br i1 %.not79.i, label %26, label %24

24:                                               ; preds = %20
  %25 = call ptr @proto_tree_add_string(ptr noundef %0, i32 noundef %8, ptr noundef %1, i32 noundef %2, i32 noundef 2, ptr noundef nonnull %23)
  br label %wkh_integer_lookup_value_header_func.exit

26:                                               ; preds = %20
  %27 = call ptr @proto_tree_add_string(ptr noundef %0, i32 noundef %8, ptr noundef %1, i32 noundef %2, i32 noundef 2, ptr noundef %14)
  br label %60

28:                                               ; preds = %4
  %29 = add nsw i8 %10, -32
  %or.cond.i = icmp ult i8 %29, -31
  br i1 %or.cond.i, label %30, label %35

30:                                               ; preds = %28
  %31 = call ptr @wmem_packet_scope()
  %32 = call ptr @tvb_get_stringz_enc(ptr noundef %31, ptr noundef %1, i32 noundef %9, ptr noundef nonnull %6, i32 noundef 0)
  %33 = load i32, ptr %6, align 4
  %34 = add i32 %33, %9
  br label %60

35:                                               ; preds = %28
  %36 = icmp eq i8 %10, 31
  br i1 %36, label %.thread.i, label %43

.thread.i:                                        ; preds = %35
  %37 = add i32 %2, 2
  %38 = call i32 @tvb_get_uintvar(ptr noundef %1, i32 noundef %37, ptr noundef nonnull %7, ptr noundef %3, ptr noundef nonnull @ei_wsp_oversized_uintvar)
  store i32 %38, ptr %6, align 4
  %39 = load i32, ptr %7, align 4
  %40 = add i32 %39, 1
  store i32 %40, ptr %7, align 4
  %41 = add i32 %38, %9
  %42 = add i32 %41, %40
  br label %60

43:                                               ; preds = %35
  %44 = call zeroext i8 @tvb_get_uint8(ptr noundef %1, i32 noundef %9)
  %45 = zext i8 %44 to i32
  store i32 %45, ptr %6, align 4
  store i32 1, ptr %7, align 4
  %46 = add i32 %2, 2
  %47 = add i32 %46, %45
  %48 = icmp samesign ult i8 %10, 5
  br i1 %48, label %49, label %60

49:                                               ; preds = %43
  %50 = call zeroext i8 @tvb_get_uint8(ptr noundef %1, i32 noundef %9)
  %51 = add i8 %50, -1
  %52 = icmp ult i8 %51, 4
  br i1 %52, label %53, label %60

53:                                               ; preds = %49
  %54 = call ptr @try_val_to_str_ext(i32 noundef %19, ptr noundef nonnull @vals_bearer_types_ext)
  %.not78.i = icmp eq ptr %54, null
  %55 = sub i32 %47, %2
  br i1 %.not78.i, label %58, label %56

56:                                               ; preds = %53
  %57 = call ptr @proto_tree_add_string(ptr noundef %0, i32 noundef %8, ptr noundef %1, i32 noundef %2, i32 noundef %55, ptr noundef nonnull %54)
  br label %wkh_integer_lookup_value_header_func.exit

58:                                               ; preds = %53
  %59 = call ptr @proto_tree_add_string(ptr noundef %0, i32 noundef %8, ptr noundef %1, i32 noundef %2, i32 noundef %55, ptr noundef %14)
  br label %wkh_integer_lookup_value_header_func.exit

60:                                               ; preds = %49, %43, %.thread.i, %30, %26
  %.074.ph.i = phi i32 [ %42, %.thread.i ], [ %47, %43 ], [ %47, %49 ], [ %34, %30 ], [ %21, %26 ]
  %61 = load ptr, ptr %5, align 8
  %62 = call ptr @expert_add_info(ptr noundef %3, ptr noundef %61, ptr noundef nonnull @ei_wsp_header_invalid_value)
  br label %wkh_integer_lookup_value_header_func.exit

wkh_integer_lookup_value_header_func.exit:        ; preds = %24, %56, %58, %60
  %.0746.i = phi i32 [ %.074.ph.i, %60 ], [ %21, %24 ], [ %47, %56 ], [ %47, %58 ]
  call void @llvm.lifetime.end.p0(i64 4, ptr nonnull %7) #5
  call void @llvm.lifetime.end.p0(i64 4, ptr nonnull %6) #5
  call void @llvm.lifetime.end.p0(i64 8, ptr nonnull %5) #5
  ret i32 %.0746.i
}